; Function Attrs: nounwind uwtable
define ptr @l_Lean_Meta_traverseForallWithPos_visit___rarg___lambda__3(ptr noundef %0, ptr noundef %1, ptr noundef %2, ptr noundef %3, ptr noundef %4, ptr noundef %5, ptr noundef %6, ptr noundef %7, i8 noundef zeroext %8, ptr noundef %9) local_unnamed_addr #0 {
  %11 = ptrtoint ptr %4 to i64
  %12 = and i64 %11, 1
  %.not = icmp eq i64 %12, 0
  br i1 %.not, label %13, label %lean_inc.exit23

13:                                               ; preds = %10
  %.val.i = load i32, ptr %4, align 4, !tbaa !4
  %14 = icmp sgt i32 %.val.i, 0
  br i1 %14, label %15, label %17, !prof !13

15:                                               ; preds = %13
  %16 = add nuw i32 %.val.i, 1
  store i32 %16, ptr %4, align 4, !tbaa !4
  br label %lean_inc.exit23

17:                                               ; preds = %13
  %.not.i = icmp eq i32 %.val.i, 0
  br i1 %.not.i, label %lean_inc.exit23, label %18

18:                                               ; preds = %17
  tail call void @lean_inc_ref_cold(ptr noundef nonnull %4) #3
  br label %lean_inc.exit23

lean_inc.exit23:                                  ; preds = %18, %17, %15, %10
  %19 = ptrtoint ptr %2 to i64
  %20 = and i64 %19, 1
  %.not27 = icmp eq i64 %20, 0
  br i1 %.not27, label %21, label %lean_inc.exit

21:                                               ; preds = %lean_inc.exit23
  %.val.i24 = load i32, ptr %2, align 4, !tbaa !4
  %22 = icmp sgt i32 %.val.i24, 0
  br i1 %22, label %23, label %25, !prof !13

23:                                               ; preds = %21
  %24 = add nuw i32 %.val.i24, 1
  store i32 %24, ptr %2, align 4, !tbaa !4
  br label %lean_inc.exit

25:                                               ; preds = %21
  %.not.i25 = icmp eq i32 %.val.i24, 0
  br i1 %.not.i25, label %lean_inc.exit, label %26

26:                                               ; preds = %25
  tail call void @lean_inc_ref_cold(ptr noundef nonnull %2) #3
  br label %lean_inc.exit

lean_inc.exit:                                    ; preds = %26, %25, %23, %lean_inc.exit23
  tail call void @lean_inc_heartbeat() #3
  %27 = tail call noalias ptr @mi_malloc_small(i64 noundef 80) #3
  %28 = icmp eq ptr %27, null
  br i1 %28, label %29, label %lean_alloc_closure.exit

29:                                               ; preds = %lean_inc.exit
  tail call void @lean_internal_panic_out_of_memory() #4
  unreachable

lean_alloc_closure.exit:                          ; preds = %lean_inc.exit
  %30 = getelementptr inbounds nuw i8, ptr %27, i64 4
  store i32 1, ptr %27, align 4, !tbaa !4
  store i32 -184549296, ptr %30, align 4
  %31 = getelementptr inbounds nuw i8, ptr %27, i64 8
  store ptr @l_Lean_Meta_traverseForallWithPos_visit___rarg___lambda__2___boxed, ptr %31, align 8, !tbaa !9
  %32 = getelementptr inbounds nuw i8, ptr %27, i64 16
  store i16 8, ptr %32, align 8, !tbaa !11
  %33 = getelementptr inbounds nuw i8, ptr %27, i64 18
  store i16 7, ptr %33, align 2, !tbaa !11
  %34 = getelementptr inbounds nuw i8, ptr %27, i64 24
  store ptr %0, ptr %34, align 8, !tbaa !9
  %35 = getelementptr inbounds nuw i8, ptr %27, i64 32
  store ptr %1, ptr %35, align 8, !tbaa !9
  %36 = getelementptr inbounds nuw i8, ptr %27, i64 40
  store ptr %2, ptr %36, align 8, !tbaa !9
  %37 = getelementptr inbounds nuw i8, ptr %27, i64 48
  store ptr %3, ptr %37, align 8, !tbaa !9
  %38 = getelementptr inbounds nuw i8, ptr %27, i64 56
  store ptr %4, ptr %38, align 8, !tbaa !9
  %39 = getelementptr inbounds nuw i8, ptr %27, i64 64
  store ptr %5, ptr %39, align 8, !tbaa !9
  %40 = getelementptr inbounds nuw i8, ptr %27, i64 72
  store ptr %6, ptr %40, align 8, !tbaa !9
  %41 = tail call ptr @l_Lean_Meta_withLocalDecl___at_Lean_Meta_traverseForallWithPos_visit___spec__1___rarg(ptr noundef %2, ptr noundef %4, ptr nonnull poison, ptr noundef %7, i8 noundef zeroext %8, ptr noundef %9, ptr noundef nonnull %27, i8 noundef zeroext 0)
  ret ptr %41
}